target datalayout = "e-m:e-p270:32:32-p271:32:32-p272:64:64-i64:64-i128:128-f80:128-n8:16:32:64-S128"
target triple = "x86_64-pc-linux-gnu"

%"class.google::protobuf::stringpiece_internal::StringPiece" = type { ptr, i64 }

; Function Attrs: mustprogress nounwind uwtable
define linkonce_odr hidden noundef i64 @_ZN6google8protobuf20stringpiece_internal11StringPiece9CheckSizeEm(i64 noundef %0) #7 comdat align 2 {
  %2 = alloca i64, align 8
  store i64 %0, ptr %2, align 8, !tbaa !46
  %3 = load i64, ptr %2, align 8, !tbaa !46
  ret i64 %3
}

; Function Attrs: mustprogress uwtable
define linkonce_odr hidden void @_ZN6google8protobuf20stringpiece_internal11StringPieceC2EPKcm(ptr noundef nonnull align 8 dereferenceable(16) %0, ptr noundef %1, i64 noundef %2) unnamed_addr #4 comdat align 2 {
  %4 = alloca ptr, align 8
  %5 = alloca ptr, align 8
  %6 = alloca i64, align 8
  store ptr %0, ptr %4, align 8, !tbaa !39
  store ptr %1, ptr %5, align 8, !tbaa !7
  store i64 %2, ptr %6, align 8, !tbaa !46
  %7 = load ptr, ptr %4, align 8
  %8 = getelementptr inbounds nuw %"class.google::protobuf::stringpiece_internal::StringPiece", ptr %7, i32 0, i32 0
  %9 = load ptr, ptr %5, align 8, !tbaa !7
  store ptr %9, ptr %8, align 8, !tbaa !44
  %10 = getelementptr inbounds nuw %"class.google::protobuf::stringpiece_internal::StringPiece", ptr %7, i32 0, i32 1
  %11 = load i64, ptr %6, align 8, !tbaa !46
  %12 = call noundef i64 @_ZN6google8protobuf20stringpiece_internal11StringPiece9CheckSizeEm(i64 noundef %11)
  store i64 %12, ptr %10, align 8, !tbaa !41
  ret void
}

; Function Attrs: mustprogress nounwind uwtable
define linkonce_odr hidden noundef i64 @_ZNK6google8protobuf20stringpiece_internal11StringPiece6lengthEv(ptr noundef nonnull align 8 dereferenceable(16) %0) #7 comdat align 2 {
  %2 = alloca ptr, align 8
  store ptr %0, ptr %2, align 8, !tbaa !39
  %3 = load ptr, ptr %2, align 8
  %4 = getelementptr inbounds nuw %"class.google::protobuf::stringpiece_internal::StringPiece", ptr %3, i32 0, i32 1
  %5 = load i64, ptr %4, align 8, !tbaa !41
  ret i64 %5
}

; Function Attrs: mustprogress nounwind uwtable
define linkonce_odr hidden noundef ptr @_ZNK6google8protobuf20stringpiece_internal11StringPiece4dataEv(ptr noundef nonnull align 8 dereferenceable(16) %0) #7 comdat align 2 {
  %2 = alloca ptr, align 8
  store ptr %0, ptr %2, align 8, !tbaa !39
  %3 = load ptr, ptr %2, align 8
  %4 = getelementptr inbounds nuw %"class.google::protobuf::stringpiece_internal::StringPiece", ptr %3, i32 0, i32 0
  %5 = load ptr, ptr %4, align 8, !tbaa !44
  ret ptr %5
}

; Function Attrs: mustprogress uwtable
define hidden noundef ptr @_ZN6google8protobuf8internal29UTF8CoerceToStructurallyValidENS0_20stringpiece_internal11StringPieceEPcc(ptr %0, i64 %1, ptr noundef %2, i8 noundef signext %3) #4 {
  %5 = alloca ptr, align 8
  %6 = alloca %"class.google::protobuf::stringpiece_internal::StringPiece", align 8
  %7 = alloca ptr, align 8
  %8 = alloca i8, align 1
  %9 = alloca ptr, align 8
  %10 = alloca i32, align 4
  %11 = alloca i32, align 4
  %12 = alloca %"class.google::protobuf::stringpiece_internal::StringPiece", align 8
  %13 = alloca i32, align 4
  %14 = alloca ptr, align 8
  %15 = alloca ptr, align 8
  %16 = alloca ptr, align 8
  %17 = alloca %"class.google::protobuf::stringpiece_internal::StringPiece", align 8
  %18 = alloca %"class.google::protobuf::stringpiece_internal::StringPiece", align 8
  %19 = getelementptr inbounds nuw { ptr, i64 }, ptr %6, i32 0, i32 0
  store ptr %0, ptr %19, align 8
  %20 = getelementptr inbounds nuw { ptr, i64 }, ptr %6, i32 0, i32 1
  store i64 %1, ptr %20, align 8
  store ptr %2, ptr %7, align 8, !tbaa !7
  store i8 %3, ptr %8, align 1, !tbaa !21
  call void @llvm.lifetime.start.p0(i64 8, ptr %9) #3
  %21 = call noundef ptr @_ZNK6google8protobuf20stringpiece_internal11StringPiece4dataEv(ptr noundef nonnull align 8 dereferenceable(16) %6)
  store ptr %21, ptr %9, align 8, !tbaa !7
  call void @llvm.lifetime.start.p0(i64 4, ptr %10) #3
  %22 = call noundef i64 @_ZNK6google8protobuf20stringpiece_internal11StringPiece6lengthEv(ptr noundef nonnull align 8 dereferenceable(16) %6)
  %23 = trunc i64 %22 to i32
  store i32 %23, ptr %10, align 4, !tbaa !9
  call void @llvm.lifetime.start.p0(i64 4, ptr %11) #3
  call void @llvm.memcpy.p0.p0.i64(ptr align 8 %12, ptr align 8 %6, i64 16, i1 false), !tbaa.struct !45
  %24 = getelementptr inbounds nuw { ptr, i64 }, ptr %12, i32 0, i32 0
  %25 = load ptr, ptr %24, align 8
  %26 = getelementptr inbounds nuw { ptr, i64 }, ptr %12, i32 0, i32 1
  %27 = load i64, ptr %26, align 8
  %28 = call noundef i32 @_ZN6google8protobuf8internal24UTF8SpnStructurallyValidENS0_20stringpiece_internal11StringPieceE(ptr %25, i64 %27)
  store i32 %28, ptr %11, align 4, !tbaa !9
  %29 = load i32, ptr %11, align 4, !tbaa !9
  %30 = load i32, ptr %10, align 4, !tbaa !9
  %31 = icmp eq i32 %29, %30
  br i1 %31, label %32, label %34

32:                                               ; preds = %4
  %33 = load ptr, ptr %9, align 8, !tbaa !7
  store ptr %33, ptr %5, align 8
  store i32 1, ptr %13, align 4
  br label %91

34:                                               ; preds = %4
  call void @llvm.lifetime.start.p0(i64 8, ptr %14) #3
  %35 = load ptr, ptr %9, align 8, !tbaa !7
  store ptr %35, ptr %14, align 8, !tbaa !7
  call void @llvm.lifetime.start.p0(i64 8, ptr %15) #3
  %36 = load ptr, ptr %9, align 8, !tbaa !7
  %37 = load i32, ptr %10, align 4, !tbaa !9
  %38 = sext i32 %37 to i64
  %39 = getelementptr inbounds i8, ptr %36, i64 %38
  store ptr %39, ptr %15, align 8, !tbaa !7
  call void @llvm.lifetime.start.p0(i64 8, ptr %16) #3
  %40 = load ptr, ptr %7, align 8, !tbaa !7
  store ptr %40, ptr %16, align 8, !tbaa !7
  %41 = load ptr, ptr %16, align 8, !tbaa !7
  %42 = load ptr, ptr %14, align 8, !tbaa !7
  %43 = load i32, ptr %11, align 4, !tbaa !9
  %44 = sext i32 %43 to i64
  call void @llvm.memmove.p0.p0.i64(ptr align 1 %41, ptr align 1 %42, i64 %44, i1 false)
  %45 = load i32, ptr %11, align 4, !tbaa !9
  %46 = load ptr, ptr %14, align 8, !tbaa !7
  %47 = sext i32 %45 to i64
  %48 = getelementptr inbounds i8, ptr %46, i64 %47
  store ptr %48, ptr %14, align 8, !tbaa !7
  %49 = load i32, ptr %11, align 4, !tbaa !9
  %50 = load ptr, ptr %16, align 8, !tbaa !7
  %51 = sext i32 %49 to i64
  %52 = getelementptr inbounds i8, ptr %50, i64 %51
  store ptr %52, ptr %16, align 8, !tbaa !7
  br label %53

53:                                               ; preds = %57, %34
  %54 = load ptr, ptr %14, align 8, !tbaa !7
  %55 = load ptr, ptr %15, align 8, !tbaa !7
  %56 = icmp ult ptr %54, %55
  br i1 %56, label %57, label %88

57:                                               ; preds = %53
  %58 = load i8, ptr %8, align 1, !tbaa !21
  %59 = load ptr, ptr %16, align 8, !tbaa !7
  %60 = getelementptr inbounds i8, ptr %59, i64 0
  store i8 %58, ptr %60, align 1, !tbaa !21
  %61 = load ptr, ptr %14, align 8, !tbaa !7
  %62 = getelementptr inbounds nuw i8, ptr %61, i32 1
  store ptr %62, ptr %14, align 8, !tbaa !7
  %63 = load ptr, ptr %16, align 8, !tbaa !7
  %64 = getelementptr inbounds nuw i8, ptr %63, i32 1
  store ptr %64, ptr %16, align 8, !tbaa !7
  call void @llvm.lifetime.start.p0(i64 16, ptr %17) #3
  %65 = load ptr, ptr %14, align 8, !tbaa !7
  %66 = load ptr, ptr %15, align 8, !tbaa !7
  %67 = load ptr, ptr %14, align 8, !tbaa !7
  %68 = ptrtoint ptr %66 to i64
  %69 = ptrtoint ptr %67 to i64
  %70 = sub i64 %68, %69
  call void @_ZN6google8protobuf20stringpiece_internal11StringPieceC2EPKcm(ptr noundef nonnull align 8 dereferenceable(16) %17, ptr noundef %65, i64 noundef %70)
  call void @llvm.memcpy.p0.p0.i64(ptr align 8 %18, ptr align 8 %17, i64 16, i1 false), !tbaa.struct !45
  %71 = getelementptr inbounds nuw { ptr, i64 }, ptr %18, i32 0, i32 0
  %72 = load ptr, ptr %71, align 8
  %73 = getelementptr inbounds nuw { ptr, i64 }, ptr %18, i32 0, i32 1
  %74 = load i64, ptr %73, align 8
  %75 = call noundef i32 @_ZN6google8protobuf8internal24UTF8SpnStructurallyValidENS0_20stringpiece_internal11StringPieceE(ptr %72, i64 %74)
  store i32 %75, ptr %11, align 4, !tbaa !9
  %76 = load ptr, ptr %16, align 8, !tbaa !7
  %77 = load ptr, ptr %14, align 8, !tbaa !7
  %78 = load i32, ptr %11, align 4, !tbaa !9
  %79 = sext i32 %78 to i64
  call void @llvm.memmove.p0.p0.i64(ptr align 1 %76, ptr align 1 %77, i64 %79, i1 false)
  %80 = load i32, ptr %11, align 4, !tbaa !9
  %81 = load ptr, ptr %14, align 8, !tbaa !7
  %82 = sext i32 %80 to i64
  %83 = getelementptr inbounds i8, ptr %81, i64 %82
  store ptr %83, ptr %14, align 8, !tbaa !7
  %84 = load i32, ptr %11, align 4, !tbaa !9
  %85 = load ptr, ptr %16, align 8, !tbaa !7
  %86 = sext i32 %84 to i64
  %87 = getelementptr inbounds i8, ptr %85, i64 %86
  store ptr %87, ptr %16, align 8, !tbaa !7
  call void @llvm.lifetime.end.p0(i64 16, ptr %17) #3
  br label %53, !llvm.loop !47

88:                                               ; preds = %53
  call void @llvm.lifetime.end.p0(i64 8, ptr %16) #3
  call void @llvm.lifetime.end.p0(i64 8, ptr %15) #3
  call void @llvm.lifetime.end.p0(i64 8, ptr %14) #3
  br label %89

89:                                               ; preds = %88
  %90 = load ptr, ptr %7, align 8, !tbaa !7
  store ptr %90, ptr %5, align 8
  store i32 1, ptr %13, align 4
  br label %91

91:                                               ; preds = %89, %32
  call void @llvm.lifetime.end.p0(i64 4, ptr %11) #3
  call void @llvm.lifetime.end.p0(i64 4, ptr %10) #3
  call void @llvm.lifetime.end.p0(i64 8, ptr %9) #3
  %92 = load ptr, ptr %5, align 8
  ret ptr %92
}